target datalayout = "e-m:e-p270:32:32-p271:32:32-p272:64:64-i64:64-i128:128-f80:128-n8:16:32:64-S128"
target triple = "x86_64-pc-linux-gnu"

%"class.arrow::compute::FunctionOptions" = type { ptr, ptr }
%"class.std::vector" = type { %"struct.std::_Vector_base" }
%"struct.std::_Vector_base" = type { %"struct.std::_Vector_base<double, std::allocator<double>>::_Vector_impl" }
%"struct.std::_Vector_base<double, std::allocator<double>>::_Vector_impl" = type { %"struct.std::_Vector_base<double, std::allocator<double>>::_Vector_impl_data" }
%"struct.std::_Vector_base<double, std::allocator<double>>::_Vector_impl_data" = type { ptr, ptr, ptr }
%"class.arrow::compute::TDigestOptions" = type { %"class.arrow::compute::FunctionOptions", %"class.std::vector", i32, i32, i8, i32 }

@_ZN5arrow7compute8internal12_GLOBAL__N_119kTDigestOptionsTypeE = internal global ptr null, align 8
@_ZTVN5arrow7compute14TDigestOptionsE = linkonce_odr unnamed_addr constant { [4 x ptr] } { [4 x ptr] [ptr null, ptr @_ZTIN5arrow7compute14TDigestOptionsE, ptr @_ZN5arrow7compute14TDigestOptionsD2Ev, ptr @_ZN5arrow7compute14TDigestOptionsD0Ev] }, comdat, align 8
@_ZTVN5arrow7compute15FunctionOptionsE = linkonce_odr unnamed_addr constant { [4 x ptr] } { [4 x ptr] [ptr null, ptr @_ZTIN5arrow7compute15FunctionOptionsE, ptr @_ZN5arrow4util18EqualityComparableINS_7compute15FunctionOptionsEED2Ev, ptr @_ZN5arrow7compute15FunctionOptionsD0Ev] }, comdat, align 8

; Function Attrs: mustprogress nounwind uwtable
define linkonce_odr void @_ZNSt15__new_allocatorIdEC2ERKS0_(ptr noundef nonnull align 1 dereferenceable(1) %0, ptr noundef nonnull align 1 dereferenceable(1) %1) unnamed_addr #0 comdat align 2 {
  %3 = alloca ptr, align 8
  %4 = alloca ptr, align 8
  store ptr %0, ptr %3, align 8, !tbaa !188
  store ptr %1, ptr %4, align 8, !tbaa !188
  ret void
}

; Function Attrs: mustprogress nounwind uwtable
define linkonce_odr void @_ZNSt12_Vector_baseIdSaIdEE17_Vector_impl_dataC2EOS2_(ptr noundef nonnull align 8 dereferenceable(24) %0, ptr noundef nonnull align 8 dereferenceable(24) %1) unnamed_addr #0 comdat align 2 {
  %3 = alloca ptr, align 8
  %4 = alloca ptr, align 8
  store ptr %0, ptr %3, align 8, !tbaa !256
  store ptr %1, ptr %4, align 8, !tbaa !256
  %5 = load ptr, ptr %3, align 8
  %6 = getelementptr inbounds nuw %"struct.std::_Vector_base<double, std::allocator<double>>::_Vector_impl_data", ptr %5, i32 0, i32 0
  %7 = load ptr, ptr %4, align 8, !tbaa !256
  %8 = getelementptr inbounds nuw %"struct.std::_Vector_base<double, std::allocator<double>>::_Vector_impl_data", ptr %7, i32 0, i32 0
  %9 = load ptr, ptr %8, align 8, !tbaa !258
  store ptr %9, ptr %6, align 8, !tbaa !258
  %10 = getelementptr inbounds nuw %"struct.std::_Vector_base<double, std::allocator<double>>::_Vector_impl_data", ptr %5, i32 0, i32 1
  %11 = load ptr, ptr %4, align 8, !tbaa !256
  %12 = getelementptr inbounds nuw %"struct.std::_Vector_base<double, std::allocator<double>>::_Vector_impl_data", ptr %11, i32 0, i32 1
  %13 = load ptr, ptr %12, align 8, !tbaa !259
  store ptr %13, ptr %10, align 8, !tbaa !259
  %14 = getelementptr inbounds nuw %"struct.std::_Vector_base<double, std::allocator<double>>::_Vector_impl_data", ptr %5, i32 0, i32 2
  %15 = load ptr, ptr %4, align 8, !tbaa !256
  %16 = getelementptr inbounds nuw %"struct.std::_Vector_base<double, std::allocator<double>>::_Vector_impl_data", ptr %15, i32 0, i32 2
  %17 = load ptr, ptr %16, align 8, !tbaa !260
  store ptr %17, ptr %14, align 8, !tbaa !260
  %18 = load ptr, ptr %4, align 8, !tbaa !256
  %19 = getelementptr inbounds nuw %"struct.std::_Vector_base<double, std::allocator<double>>::_Vector_impl_data", ptr %18, i32 0, i32 2
  store ptr null, ptr %19, align 8, !tbaa !260
  %20 = load ptr, ptr %4, align 8, !tbaa !256
  %21 = getelementptr inbounds nuw %"struct.std::_Vector_base<double, std::allocator<double>>::_Vector_impl_data", ptr %20, i32 0, i32 1
  store ptr null, ptr %21, align 8, !tbaa !259
  %22 = load ptr, ptr %4, align 8, !tbaa !256
  %23 = getelementptr inbounds nuw %"struct.std::_Vector_base<double, std::allocator<double>>::_Vector_impl_data", ptr %22, i32 0, i32 0
  store ptr null, ptr %23, align 8, !tbaa !258
  ret void
}

; Function Attrs: mustprogress nounwind uwtable
define linkonce_odr void @_ZNSaIdEC2ERKS_(ptr noundef nonnull align 1 dereferenceable(1) %0, ptr noundef nonnull align 1 dereferenceable(1) %1) unnamed_addr #0 comdat align 2 {
  %3 = alloca ptr, align 8
  %4 = alloca ptr, align 8
  store ptr %0, ptr %3, align 8, !tbaa !184
  store ptr %1, ptr %4, align 8, !tbaa !184
  %5 = load ptr, ptr %3, align 8
  %6 = load ptr, ptr %4, align 8, !tbaa !184
  call void @_ZNSt15__new_allocatorIdEC2ERKS0_(ptr noundef nonnull align 1 dereferenceable(1) %5, ptr noundef nonnull align 1 dereferenceable(1) %6) #18
  ret void
}

; Function Attrs: mustprogress nounwind uwtable
define linkonce_odr void @_ZNSt12_Vector_baseIdSaIdEE12_Vector_implC2EOS2_(ptr noundef nonnull align 8 dereferenceable(24) %0, ptr noundef nonnull align 8 dereferenceable(24) %1) unnamed_addr #0 comdat align 2 {
  %3 = alloca ptr, align 8
  %4 = alloca ptr, align 8
  store ptr %0, ptr %3, align 8, !tbaa !254
  store ptr %1, ptr %4, align 8, !tbaa !254
  %5 = load ptr, ptr %3, align 8
  %6 = load ptr, ptr %4, align 8, !tbaa !254
  call void @_ZNSaIdEC2ERKS_(ptr noundef nonnull align 1 dereferenceable(1) %5, ptr noundef nonnull align 1 dereferenceable(1) %6) #18
  %7 = load ptr, ptr %4, align 8, !tbaa !254
  call void @_ZNSt12_Vector_baseIdSaIdEE17_Vector_impl_dataC2EOS2_(ptr noundef nonnull align 8 dereferenceable(24) %5, ptr noundef nonnull align 8 dereferenceable(24) %7) #18
  ret void
}

; Function Attrs: mustprogress nounwind uwtable
define linkonce_odr void @_ZNSt12_Vector_baseIdSaIdEEC2EOS1_(ptr noundef nonnull align 8 dereferenceable(24) %0, ptr noundef nonnull align 8 dereferenceable(24) %1) unnamed_addr #0 comdat align 2 {
  %3 = alloca ptr, align 8
  %4 = alloca ptr, align 8
  store ptr %0, ptr %3, align 8, !tbaa !252
  store ptr %1, ptr %4, align 8, !tbaa !252
  %5 = load ptr, ptr %3, align 8
  %6 = getelementptr inbounds nuw %"struct.std::_Vector_base", ptr %5, i32 0, i32 0
  %7 = load ptr, ptr %4, align 8, !tbaa !252
  %8 = getelementptr inbounds nuw %"struct.std::_Vector_base", ptr %7, i32 0, i32 0
  call void @_ZNSt12_Vector_baseIdSaIdEE12_Vector_implC2EOS2_(ptr noundef nonnull align 8 dereferenceable(24) %6, ptr noundef nonnull align 8 dereferenceable(24) %8) #18
  ret void
}

; Function Attrs: mustprogress nounwind uwtable
define linkonce_odr void @_ZNSt6vectorIdSaIdEEC2EOS1_(ptr noundef nonnull align 8 dereferenceable(24) %0, ptr noundef nonnull align 8 dereferenceable(24) %1) unnamed_addr #0 comdat align 2 {
  %3 = alloca ptr, align 8
  %4 = alloca ptr, align 8
  store ptr %0, ptr %3, align 8, !tbaa !186
  store ptr %1, ptr %4, align 8, !tbaa !186
  %5 = load ptr, ptr %3, align 8
  %6 = load ptr, ptr %4, align 8, !tbaa !186
  call void @_ZNSt12_Vector_baseIdSaIdEEC2EOS1_(ptr noundef nonnull align 8 dereferenceable(24) %5, ptr noundef nonnull align 8 dereferenceable(24) %6) #18
  ret void
}

; Function Attrs: mustprogress nounwind uwtable
define linkonce_odr void @_ZN5arrow7compute15FunctionOptionsC2EPKNS0_19FunctionOptionsTypeE(ptr noundef nonnull align 8 dereferenceable(16) %0, ptr noundef %1) unnamed_addr #0 comdat align 2 {
  %3 = alloca ptr, align 8
  %4 = alloca ptr, align 8
  store ptr %0, ptr %3, align 8, !tbaa !145
  store ptr %1, ptr %4, align 8, !tbaa !53
  %5 = load ptr, ptr %3, align 8
  store ptr getelementptr inbounds inrange(-16, 16) ({ [4 x ptr] }, ptr @_ZTVN5arrow7compute15FunctionOptionsE, i32 0, i32 0, i32 2), ptr %5, align 8, !tbaa !137
  %6 = getelementptr inbounds nuw %"class.arrow::compute::FunctionOptions", ptr %5, i32 0, i32 1
  %7 = load ptr, ptr %4, align 8, !tbaa !53
  store ptr %7, ptr %6, align 8, !tbaa !147
  ret void
}

; Function Attrs: mustprogress uwtable
define void @_ZN5arrow7compute14TDigestOptionsC2ESt6vectorIdSaIdEEjjbj(ptr noundef nonnull align 8 dereferenceable(56) %0, ptr noundef %1, i32 noundef %2, i32 noundef %3, i1 noundef zeroext %4, i32 noundef %5) unnamed_addr #2 align 2 {
  %7 = alloca ptr, align 8
  %8 = alloca ptr, align 8
  %9 = alloca i32, align 4
  %10 = alloca i32, align 4
  %11 = alloca i8, align 1
  %12 = alloca i32, align 4
  store ptr %0, ptr %7, align 8, !tbaa !190
  store ptr %1, ptr %8, align 8, !tbaa !186
  store i32 %2, ptr %9, align 4, !tbaa !8
  store i32 %3, ptr %10, align 4, !tbaa !8
  %13 = zext i1 %4 to i8
  store i8 %13, ptr %11, align 1, !tbaa !135
  store i32 %5, ptr %12, align 4, !tbaa !8
  %14 = load ptr, ptr %7, align 8
  %15 = load ptr, ptr @_ZN5arrow7compute8internal12_GLOBAL__N_119kTDigestOptionsTypeE, align 8, !tbaa !53
  call void @_ZN5arrow7compute15FunctionOptionsC2EPKNS0_19FunctionOptionsTypeE(ptr noundef nonnull align 8 dereferenceable(16) %14, ptr noundef %15)
  store ptr getelementptr inbounds inrange(-16, 16) ({ [4 x ptr] }, ptr @_ZTVN5arrow7compute14TDigestOptionsE, i32 0, i32 0, i32 2), ptr %14, align 8, !tbaa !137
  %16 = getelementptr inbounds nuw %"class.arrow::compute::TDigestOptions", ptr %14, i32 0, i32 1
  call void @_ZNSt6vectorIdSaIdEEC2EOS1_(ptr noundef nonnull align 8 dereferenceable(24) %16, ptr noundef nonnull align 8 dereferenceable(24) %1) #18
  %17 = getelementptr inbounds nuw %"class.arrow::compute::TDigestOptions", ptr %14, i32 0, i32 2
  %18 = load i32, ptr %9, align 4, !tbaa !8
  store i32 %18, ptr %17, align 8, !tbaa !192
  %19 = getelementptr inbounds nuw %"class.arrow::compute::TDigestOptions", ptr %14, i32 0, i32 3
  %20 = load i32, ptr %10, align 4, !tbaa !8
  store i32 %20, ptr %19, align 4, !tbaa !194
  %21 = getelementptr inbounds nuw %"class.arrow::compute::TDigestOptions", ptr %14, i32 0, i32 4
  %22 = load i8, ptr %11, align 1, !tbaa !135, !range !139, !noundef !140
  %23 = trunc i8 %22 to i1
  %24 = zext i1 %23 to i8
  store i8 %24, ptr %21, align 8, !tbaa !195
  %25 = getelementptr inbounds nuw %"class.arrow::compute::TDigestOptions", ptr %14, i32 0, i32 5
  %26 = load i32, ptr %12, align 4, !tbaa !8
  store i32 %26, ptr %25, align 4, !tbaa !196
  ret void
}