; Function Attrs: mustprogress nofree norecurse nosync nounwind willreturn memory(read, argmem: readwrite, inaccessiblemem: none) uwtable
define void @_ZN5arrow7compute14TDigestOptionsC2ESt6vectorIdSaIdEEjjbj(ptr noundef nonnull writeonly align 8 captures(none) dereferenceable(56) initializes((0, 49), (52, 56)) %0, ptr noundef captures(none) %1, i32 noundef %2, i32 noundef %3, i1 noundef zeroext %4, i32 noundef %5) unnamed_addr #4 align 2 {
  %7 = zext i1 %4 to i8
  %8 = load ptr, ptr @_ZN5arrow7compute8internal12_GLOBAL__N_119kTDigestOptionsTypeE, align 8, !tbaa !32
  %9 = getelementptr inbounds nuw i8, ptr %0, i64 8
  store ptr %8, ptr %9, align 8, !tbaa !35
  store ptr getelementptr inbounds nuw inrange(-16, 16) (i8, ptr @_ZTVN5arrow7compute14TDigestOptionsE, i64 16), ptr %0, align 8, !tbaa !37
  %10 = getelementptr inbounds nuw i8, ptr %0, i64 16
  %11 = load ptr, ptr %1, align 8, !tbaa !54
  store ptr %11, ptr %10, align 8, !tbaa !54
  %12 = getelementptr inbounds nuw i8, ptr %0, i64 24
  %13 = getelementptr inbounds nuw i8, ptr %1, i64 8
  %14 = load ptr, ptr %13, align 8, !tbaa !58
  store ptr %14, ptr %12, align 8, !tbaa !58
  %15 = getelementptr inbounds nuw i8, ptr %0, i64 32
  %16 = getelementptr inbounds nuw i8, ptr %1, i64 16
  %17 = load ptr, ptr %16, align 8, !tbaa !57
  store ptr %17, ptr %15, align 8, !tbaa !57
  tail call void @llvm.memset.p0.i64(ptr noundef nonnull align 8 dereferenceable(24) %1, i8 0, i64 24, i1 false)
  %18 = getelementptr inbounds nuw i8, ptr %0, i64 40
  store i32 %2, ptr %18, align 8, !tbaa !67
  %19 = getelementptr inbounds nuw i8, ptr %0, i64 44
  store i32 %3, ptr %19, align 4, !tbaa !69
  %20 = getelementptr inbounds nuw i8, ptr %0, i64 48
  store i8 %7, ptr %20, align 8, !tbaa !70
  %21 = getelementptr inbounds nuw i8, ptr %0, i64 52
  store i32 %5, ptr %21, align 4, !tbaa !71
  ret void
}